target datalayout = "e-m:e-p270:32:32-p271:32:32-p272:64:64-i64:64-i128:128-f80:128-n8:16:32:64-S128"
target triple = "x86_64-pc-linux-gnu"

; Function Attrs: mustprogress uwtable
define noundef i64 @_ZN7rocksdb31PrecomputeMinLogNumberToKeep2PCEPNS_10VersionSetERKNS_10autovectorIPNS_16ColumnFamilyDataELm8EEERKNS2_INS2_IPNS_11VersionEditELm8EEELm8EEERKNS2_IPKNS2_IPNS_16ReadOnlyMemTableELm8EEELm8EEEPNS_19LogsWithPrepTrackerE(ptr noundef %0, ptr noundef nonnull align 8 dereferenceable(104) %1, ptr noundef nonnull align 8 dereferenceable(872) %2, ptr noundef nonnull align 8 dereferenceable(104) %3, ptr noundef %4) #5 {
  %6 = alloca ptr, align 8
  %7 = alloca ptr, align 8
  %8 = alloca ptr, align 8
  %9 = alloca ptr, align 8
  %10 = alloca ptr, align 8
  %11 = alloca i64, align 8
  %12 = alloca i64, align 8
  %13 = alloca i64, align 8
  store ptr %0, ptr %6, align 8, !tbaa !50
  store ptr %1, ptr %7, align 8, !tbaa !985
  store ptr %2, ptr %8, align 8, !tbaa !987
  store ptr %3, ptr %9, align 8, !tbaa !972
  store ptr %4, ptr %10, align 8, !tbaa !763
  call void @llvm.lifetime.start.p0(i64 8, ptr %11) #4
  %14 = load ptr, ptr %6, align 8, !tbaa !50
  %15 = load ptr, ptr %7, align 8, !tbaa !985
  %16 = load ptr, ptr %8, align 8, !tbaa !987
  %17 = call noundef i64 @_ZN7rocksdb34PrecomputeMinLogNumberToKeepNon2PCEPNS_10VersionSetERKNS_10autovectorIPNS_16ColumnFamilyDataELm8EEERKNS2_INS2_IPNS_11VersionEditELm8EEELm8EEE(ptr noundef %14, ptr noundef nonnull align 8 dereferenceable(104) %15, ptr noundef nonnull align 8 dereferenceable(872) %16)
  store i64 %17, ptr %11, align 8, !tbaa !4
  call void @llvm.lifetime.start.p0(i64 8, ptr %12) #4
  %18 = load ptr, ptr %10, align 8, !tbaa !763
  %19 = call noundef i64 @_ZN7rocksdb19LogsWithPrepTracker35FindMinLogContainingOutstandingPrepEv(ptr noundef nonnull align 8 dereferenceable(160) %18)
  store i64 %19, ptr %12, align 8, !tbaa !4
  %20 = load i64, ptr %12, align 8, !tbaa !4
  %21 = icmp ne i64 %20, 0
  br i1 %21, label %22, label %28

22:                                               ; preds = %5
  %23 = load i64, ptr %12, align 8, !tbaa !4
  %24 = load i64, ptr %11, align 8, !tbaa !4
  %25 = icmp ult i64 %23, %24
  br i1 %25, label %26, label %28

26:                                               ; preds = %22
  %27 = load i64, ptr %12, align 8, !tbaa !4
  store i64 %27, ptr %11, align 8, !tbaa !4
  br label %28

28:                                               ; preds = %26, %22, %5
  call void @llvm.lifetime.start.p0(i64 8, ptr %13) #4
  %29 = load ptr, ptr %6, align 8, !tbaa !50
  %30 = load ptr, ptr %9, align 8, !tbaa !972
  %31 = call noundef i64 @_ZN7rocksdb34FindMinPrepLogReferencedByMemTableEPNS_10VersionSetERKNS_10autovectorIPKNS2_IPNS_16ReadOnlyMemTableELm8EEELm8EEE(ptr noundef %29, ptr noundef nonnull align 8 dereferenceable(104) %30)
  store i64 %31, ptr %13, align 8, !tbaa !4
  %32 = load i64, ptr %13, align 8, !tbaa !4
  %33 = icmp ne i64 %32, 0
  br i1 %33, label %34, label %40

34:                                               ; preds = %28
  %35 = load i64, ptr %13, align 8, !tbaa !4
  %36 = load i64, ptr %11, align 8, !tbaa !4
  %37 = icmp ult i64 %35, %36
  br i1 %37, label %38, label %40

38:                                               ; preds = %34
  %39 = load i64, ptr %13, align 8, !tbaa !4
  store i64 %39, ptr %11, align 8, !tbaa !4
  br label %40

40:                                               ; preds = %38, %34, %28
  %41 = load i64, ptr %11, align 8, !tbaa !4
  call void @llvm.lifetime.end.p0(i64 8, ptr %13) #4
  call void @llvm.lifetime.end.p0(i64 8, ptr %12) #4
  call void @llvm.lifetime.end.p0(i64 8, ptr %11) #4
  ret i64 %41
}