; Function Attrs: mustprogress uwtable
define noundef i64 @_ZN7rocksdb31PrecomputeMinLogNumberToKeep2PCEPNS_10VersionSetERKNS_10autovectorIPNS_16ColumnFamilyDataELm8EEERKNS2_INS2_IPNS_11VersionEditELm8EEELm8EEERKNS2_IPKNS2_IPNS_16ReadOnlyMemTableELm8EEELm8EEEPNS_19LogsWithPrepTrackerE(ptr noundef readonly captures(none) %0, ptr noundef nonnull align 8 dereferenceable(104) %1, ptr noundef nonnull readonly align 8 captures(none) dereferenceable(872) %2, ptr noundef nonnull readonly align 8 captures(none) dereferenceable(104) %3, ptr noundef %4) local_unnamed_addr #6 {
  %6 = tail call noundef i64 @_ZN7rocksdb34PrecomputeMinLogNumberToKeepNon2PCEPNS_10VersionSetERKNS_10autovectorIPNS_16ColumnFamilyDataELm8EEERKNS2_INS2_IPNS_11VersionEditELm8EEELm8EEE(ptr noundef %0, ptr noundef nonnull align 8 dereferenceable(104) %1, ptr noundef nonnull align 8 dereferenceable(872) %2)
  %7 = tail call noundef i64 @_ZN7rocksdb19LogsWithPrepTracker35FindMinLogContainingOutstandingPrepEv(ptr noundef nonnull align 8 dereferenceable(160) %4)
  %.not.not = icmp eq i64 %7, 0
  %8 = tail call i64 @llvm.umin.i64(i64 %7, i64 %6)
  %.0 = select i1 %.not.not, i64 %6, i64 %8
  %9 = tail call noundef i64 @_ZN7rocksdb34FindMinPrepLogReferencedByMemTableEPNS_10VersionSetERKNS_10autovectorIPKNS2_IPNS_16ReadOnlyMemTableELm8EEELm8EEE(ptr noundef %0, ptr noundef nonnull align 8 dereferenceable(104) %3)
  %.not17.not = icmp eq i64 %9, 0
  %10 = tail call i64 @llvm.umin.i64(i64 %9, i64 %.0)
  %.1 = select i1 %.not17.not, i64 %.0, i64 %10
  ret i64 %.1
}